; Function Attrs: nounwind uwtable
define range(i32 0, 2) i32 @evp_md_ctx_free_algctx(ptr noundef captures(none) %0) local_unnamed_addr #0 {
  %2 = getelementptr inbounds nuw i8, ptr %0, i64 56
  %3 = load ptr, ptr %2, align 8, !tbaa !3
  %.not = icmp eq ptr %3, null
  br i1 %.not, label %13, label %4

4:                                                ; preds = %1
  %5 = getelementptr inbounds nuw i8, ptr %0, i64 8
  %6 = load ptr, ptr %5, align 8, !tbaa !12
  %.not9 = icmp eq ptr %6, null
  br i1 %.not9, label %7, label %8, !prof !30

7:                                                ; preds = %4
  tail call void @ERR_new() #8
  tail call void @ERR_set_debug(ptr noundef nonnull @.str, i32 noundef 147, ptr noundef nonnull @__func__.evp_md_ctx_free_algctx) #8
  tail call void (i32, i32, ptr, ...) @ERR_set_error(i32 noundef 6, i32 noundef 134, ptr noundef null) #8
  br label %13

8:                                                ; preds = %4
  %9 = getelementptr inbounds nuw i8, ptr %6, i64 176
  %10 = load ptr, ptr %9, align 8, !tbaa !13
  %.not10 = icmp eq ptr %10, null
  br i1 %.not10, label %12, label %11

11:                                               ; preds = %8
  tail call void %10(ptr noundef nonnull %3) #8
  br label %12

12:                                               ; preds = %11, %8
  store ptr null, ptr %2, align 8, !tbaa !3
  br label %13

13:                                               ; preds = %1, %12, %7
  %.0 = phi i32 [ 0, %7 ], [ 1, %12 ], [ 1, %1 ]
  ret i32 %.0
}